
Pjt02_uart_busy.elf:     file format elf32-avr

Sections:
Idx Name          Size      VMA       LMA       File off  Algn
  0 .data         00000008  00800200  00000234  000002c8  2**0
                  CONTENTS, ALLOC, LOAD, DATA
  1 .text         00000234  00000000  00000000  00000094  2**1
                  CONTENTS, ALLOC, LOAD, READONLY, CODE
  2 .bss          00000001  00800208  00800208  000002d0  2**0
                  ALLOC
  3 .stab         000006e4  00000000  00000000  000002d0  2**2
                  CONTENTS, READONLY, DEBUGGING
  4 .stabstr      00000085  00000000  00000000  000009b4  2**0
                  CONTENTS, READONLY, DEBUGGING
  5 .debug_aranges 000000c0  00000000  00000000  00000a40  2**3
                  CONTENTS, READONLY, DEBUGGING
  6 .debug_info   000005e9  00000000  00000000  00000b00  2**0
                  CONTENTS, READONLY, DEBUGGING
  7 .debug_abbrev 00000207  00000000  00000000  000010e9  2**0
                  CONTENTS, READONLY, DEBUGGING
  8 .debug_line   000003ed  00000000  00000000  000012f0  2**0
                  CONTENTS, READONLY, DEBUGGING
  9 .debug_frame  00000100  00000000  00000000  000016e0  2**2
                  CONTENTS, READONLY, DEBUGGING
 10 .debug_str    0000015b  00000000  00000000  000017e0  2**0
                  CONTENTS, READONLY, DEBUGGING
 11 .debug_loc    00000161  00000000  00000000  0000193b  2**0
                  CONTENTS, READONLY, DEBUGGING
 12 .debug_ranges 00000010  00000000  00000000  00001a9c  2**0
                  CONTENTS, READONLY, DEBUGGING

Disassembly of section .text:

00000000 <__vectors>:
   0:	0c 94 72 00 	jmp	0xe4	; 0xe4 <__ctors_end>
   4:	0c 94 94 00 	jmp	0x128	; 0x128 <__bad_interrupt>
   8:	0c 94 94 00 	jmp	0x128	; 0x128 <__bad_interrupt>
   c:	0c 94 94 00 	jmp	0x128	; 0x128 <__bad_interrupt>
  10:	0c 94 94 00 	jmp	0x128	; 0x128 <__bad_interrupt>
  14:	0c 94 94 00 	jmp	0x128	; 0x128 <__bad_interrupt>
  18:	0c 94 94 00 	jmp	0x128	; 0x128 <__bad_interrupt>
  1c:	0c 94 94 00 	jmp	0x128	; 0x128 <__bad_interrupt>
  20:	0c 94 94 00 	jmp	0x128	; 0x128 <__bad_interrupt>
  24:	0c 94 94 00 	jmp	0x128	; 0x128 <__bad_interrupt>
  28:	0c 94 94 00 	jmp	0x128	; 0x128 <__bad_interrupt>
  2c:	0c 94 94 00 	jmp	0x128	; 0x128 <__bad_interrupt>
  30:	0c 94 94 00 	jmp	0x128	; 0x128 <__bad_interrupt>
  34:	0c 94 94 00 	jmp	0x128	; 0x128 <__bad_interrupt>
  38:	0c 94 94 00 	jmp	0x128	; 0x128 <__bad_interrupt>
  3c:	0c 94 94 00 	jmp	0x128	; 0x128 <__bad_interrupt>
  40:	0c 94 94 00 	jmp	0x128	; 0x128 <__bad_interrupt>
  44:	0c 94 94 00 	jmp	0x128	; 0x128 <__bad_interrupt>
  48:	0c 94 94 00 	jmp	0x128	; 0x128 <__bad_interrupt>
  4c:	0c 94 94 00 	jmp	0x128	; 0x128 <__bad_interrupt>
  50:	0c 94 94 00 	jmp	0x128	; 0x128 <__bad_interrupt>
  54:	0c 94 94 00 	jmp	0x128	; 0x128 <__bad_interrupt>
  58:	0c 94 94 00 	jmp	0x128	; 0x128 <__bad_interrupt>
  5c:	0c 94 94 00 	jmp	0x128	; 0x128 <__bad_interrupt>
  60:	0c 94 94 00 	jmp	0x128	; 0x128 <__bad_interrupt>
  64:	0c 94 94 00 	jmp	0x128	; 0x128 <__bad_interrupt>
  68:	0c 94 94 00 	jmp	0x128	; 0x128 <__bad_interrupt>
  6c:	0c 94 94 00 	jmp	0x128	; 0x128 <__bad_interrupt>
  70:	0c 94 94 00 	jmp	0x128	; 0x128 <__bad_interrupt>
  74:	0c 94 94 00 	jmp	0x128	; 0x128 <__bad_interrupt>
  78:	0c 94 94 00 	jmp	0x128	; 0x128 <__bad_interrupt>
  7c:	0c 94 94 00 	jmp	0x128	; 0x128 <__bad_interrupt>
  80:	0c 94 94 00 	jmp	0x128	; 0x128 <__bad_interrupt>
  84:	0c 94 94 00 	jmp	0x128	; 0x128 <__bad_interrupt>
  88:	0c 94 94 00 	jmp	0x128	; 0x128 <__bad_interrupt>
  8c:	0c 94 94 00 	jmp	0x128	; 0x128 <__bad_interrupt>
  90:	0c 94 94 00 	jmp	0x128	; 0x128 <__bad_interrupt>
  94:	0c 94 94 00 	jmp	0x128	; 0x128 <__bad_interrupt>
  98:	0c 94 94 00 	jmp	0x128	; 0x128 <__bad_interrupt>
  9c:	0c 94 94 00 	jmp	0x128	; 0x128 <__bad_interrupt>
  a0:	0c 94 94 00 	jmp	0x128	; 0x128 <__bad_interrupt>
  a4:	0c 94 94 00 	jmp	0x128	; 0x128 <__bad_interrupt>
  a8:	0c 94 94 00 	jmp	0x128	; 0x128 <__bad_interrupt>
  ac:	0c 94 94 00 	jmp	0x128	; 0x128 <__bad_interrupt>
  b0:	0c 94 94 00 	jmp	0x128	; 0x128 <__bad_interrupt>
  b4:	0c 94 94 00 	jmp	0x128	; 0x128 <__bad_interrupt>
  b8:	0c 94 94 00 	jmp	0x128	; 0x128 <__bad_interrupt>
  bc:	0c 94 94 00 	jmp	0x128	; 0x128 <__bad_interrupt>
  c0:	0c 94 94 00 	jmp	0x128	; 0x128 <__bad_interrupt>
  c4:	0c 94 94 00 	jmp	0x128	; 0x128 <__bad_interrupt>
  c8:	0c 94 94 00 	jmp	0x128	; 0x128 <__bad_interrupt>
  cc:	0c 94 94 00 	jmp	0x128	; 0x128 <__bad_interrupt>
  d0:	0c 94 94 00 	jmp	0x128	; 0x128 <__bad_interrupt>
  d4:	0c 94 94 00 	jmp	0x128	; 0x128 <__bad_interrupt>
  d8:	0c 94 94 00 	jmp	0x128	; 0x128 <__bad_interrupt>
  dc:	0c 94 94 00 	jmp	0x128	; 0x128 <__bad_interrupt>
  e0:	0c 94 94 00 	jmp	0x128	; 0x128 <__bad_interrupt>

000000e4 <__ctors_end>:
  e4:	11 24       	eor	r1, r1
  e6:	1f be       	out	0x3f, r1	; 63
  e8:	cf ef       	ldi	r28, 0xFF	; 255
  ea:	d1 e2       	ldi	r29, 0x21	; 33
  ec:	de bf       	out	0x3e, r29	; 62
  ee:	cd bf       	out	0x3d, r28	; 61
  f0:	00 e0       	ldi	r16, 0x00	; 0
  f2:	0c bf       	out	0x3c, r16	; 60

000000f4 <__do_copy_data>:
  f4:	12 e0       	ldi	r17, 0x02	; 2
  f6:	a0 e0       	ldi	r26, 0x00	; 0
  f8:	b2 e0       	ldi	r27, 0x02	; 2
  fa:	e4 e3       	ldi	r30, 0x34	; 52
  fc:	f2 e0       	ldi	r31, 0x02	; 2
  fe:	00 e0       	ldi	r16, 0x00	; 0
 100:	0b bf       	out	0x3b, r16	; 59
 102:	02 c0       	rjmp	.+4      	; 0x108 <__do_copy_data+0x14>
 104:	07 90       	elpm	r0, Z+
 106:	0d 92       	st	X+, r0
 108:	a8 30       	cpi	r26, 0x08	; 8
 10a:	b1 07       	cpc	r27, r17
 10c:	d9 f7       	brne	.-10     	; 0x104 <__do_copy_data+0x10>
 10e:	1b be       	out	0x3b, r1	; 59

00000110 <__do_clear_bss>:
 110:	12 e0       	ldi	r17, 0x02	; 2
 112:	a8 e0       	ldi	r26, 0x08	; 8
 114:	b2 e0       	ldi	r27, 0x02	; 2
 116:	01 c0       	rjmp	.+2      	; 0x11a <.do_clear_bss_start>

00000118 <.do_clear_bss_loop>:
 118:	1d 92       	st	X+, r1

0000011a <.do_clear_bss_start>:
 11a:	a9 30       	cpi	r26, 0x09	; 9
 11c:	b1 07       	cpc	r27, r17
 11e:	e1 f7       	brne	.-8      	; 0x118 <.do_clear_bss_loop>
 120:	0e 94 f9 00 	call	0x1f2	; 0x1f2 <main>
 124:	0c 94 18 01 	jmp	0x230	; 0x230 <_exit>

00000128 <__bad_interrupt>:
 128:	0c 94 00 00 	jmp	0	; 0x0 <__vectors>

0000012c <led_init>:
#include "led.h"

static uint8_t Leds;

void led_init(void) {
    DDRL = PORTL = 0xff;
 12c:	8f ef       	ldi	r24, 0xFF	; 255
 12e:	80 93 0b 01 	sts	0x010B, r24
 132:	80 93 0a 01 	sts	0x010A, r24
} 
 136:	08 95       	ret

00000138 <led_on_all>:
void led_on_all(void) {
    Leds = PORTL = 0x00;
 138:	10 92 0b 01 	sts	0x010B, r1
 13c:	10 92 08 02 	sts	0x0208, r1
}
 140:	08 95       	ret

00000142 <led_off_all>:
void led_off_all(void) {
    Leds = PORTL = 0xff;
 142:	8f ef       	ldi	r24, 0xFF	; 255
 144:	80 93 0b 01 	sts	0x010B, r24
 148:	80 93 08 02 	sts	0x0208, r24
}
 14c:	08 95       	ret

0000014e <led_on>:
void led_on(uint8_t led_no) {
    Leds &= ~(1 << led_no);
 14e:	21 e0       	ldi	r18, 0x01	; 1
 150:	30 e0       	ldi	r19, 0x00	; 0
 152:	02 c0       	rjmp	.+4      	; 0x158 <led_on+0xa>
 154:	22 0f       	add	r18, r18
 156:	33 1f       	adc	r19, r19
 158:	8a 95       	dec	r24
 15a:	e2 f7       	brpl	.-8      	; 0x154 <led_on+0x6>
 15c:	20 95       	com	r18
 15e:	80 91 08 02 	lds	r24, 0x0208
 162:	28 23       	and	r18, r24
 164:	20 93 08 02 	sts	0x0208, r18
	PORTL = Leds;
 168:	20 93 0b 01 	sts	0x010B, r18
}
 16c:	08 95       	ret

0000016e <led_off>:
void led_off(uint8_t led_no) {
	Leds |= (1 << led_no);
 16e:	21 e0       	ldi	r18, 0x01	; 1
 170:	30 e0       	ldi	r19, 0x00	; 0
 172:	02 c0       	rjmp	.+4      	; 0x178 <led_off+0xa>
 174:	22 0f       	add	r18, r18
 176:	33 1f       	adc	r19, r19
 178:	8a 95       	dec	r24
 17a:	e2 f7       	brpl	.-8      	; 0x174 <led_off+0x6>
 17c:	80 91 08 02 	lds	r24, 0x0208
 180:	82 2b       	or	r24, r18
 182:	80 93 08 02 	sts	0x0208, r24
	PORTL = Leds;
 186:	80 93 0b 01 	sts	0x010B, r24
}
 18a:	08 95       	ret

0000018c <led_set>:
void led_set(uint8_t led_mask) {
    Leds = ~led_mask;
 18c:	80 95       	com	r24
 18e:	80 93 08 02 	sts	0x0208, r24
	PORTL = Leds;
 192:	80 93 0b 01 	sts	0x010B, r24
}
 196:	08 95       	ret

00000198 <uart_init>:
#include <util/delay.h>
#include <compat/deprecated.h>
#include "uart.h"

void uart_init() {
    UBRR0H = 0x00; UBRR0L = 0x07;
 198:	10 92 c5 00 	sts	0x00C5, r1
 19c:	87 e0       	ldi	r24, 0x07	; 7
 19e:	80 93 c4 00 	sts	0x00C4, r24
	sbi(UCSR0A, U2X0);
 1a2:	e0 ec       	ldi	r30, 0xC0	; 192
 1a4:	f0 e0       	ldi	r31, 0x00	; 0
 1a6:	80 81       	ld	r24, Z
 1a8:	82 60       	ori	r24, 0x02	; 2
 1aa:	80 83       	st	Z, r24
	sbi(UCSR0B, TXEN0);
 1ac:	e1 ec       	ldi	r30, 0xC1	; 193
 1ae:	f0 e0       	ldi	r31, 0x00	; 0
 1b0:	80 81       	ld	r24, Z
 1b2:	88 60       	ori	r24, 0x08	; 8
 1b4:	80 83       	st	Z, r24
}
 1b6:	08 95       	ret

000001b8 <uart_putchar>:

void uart_putchar(char ch){
 1b8:	cf 93       	push	r28
 1ba:	c8 2f       	mov	r28, r24
    if(ch == '\n') 
 1bc:	8a 30       	cpi	r24, 0x0A	; 10
 1be:	19 f4       	brne	.+6      	; 0x1c6 <uart_putchar+0xe>
	    uart_putchar('\r');
 1c0:	8d e0       	ldi	r24, 0x0D	; 13
 1c2:	0e 94 dc 00 	call	0x1b8	; 0x1b8 <uart_putchar>
	#else
		//round up by default
		__ticks_dc = (uint32_t)(ceil(fabs(__tmp)));
	#endif

	__builtin_avr_delay_cycles(__ticks_dc);
 1c6:	8f ef       	ldi	r24, 0xFF	; 255
 1c8:	97 e4       	ldi	r25, 0x47	; 71
 1ca:	01 97       	sbiw	r24, 0x01	; 1
 1cc:	f1 f7       	brne	.-4      	; 0x1ca <uart_putchar+0x12>
 1ce:	00 c0       	rjmp	.+0      	; 0x1d0 <uart_putchar+0x18>
 1d0:	00 00       	nop
	_delay_ms(10);
    UDR0 = ch;
 1d2:	c0 93 c6 00 	sts	0x00C6, r28
}
 1d6:	cf 91       	pop	r28
 1d8:	08 95       	ret

000001da <uart_putstr>:

void uart_putstr(char *sp){
 1da:	cf 93       	push	r28
 1dc:	df 93       	push	r29
 1de:	ec 01       	movw	r28, r24
    for(; *sp; sp++)
 1e0:	02 c0       	rjmp	.+4      	; 0x1e6 <uart_putstr+0xc>
	    uart_putchar(*sp);
 1e2:	0e 94 dc 00 	call	0x1b8	; 0x1b8 <uart_putchar>
	_delay_ms(10);
    UDR0 = ch;
}

void uart_putstr(char *sp){
    for(; *sp; sp++)
 1e6:	89 91       	ld	r24, Y+
 1e8:	88 23       	and	r24, r24
 1ea:	d9 f7       	brne	.-10     	; 0x1e2 <uart_putstr+0x8>
	    uart_putchar(*sp);
}
 1ec:	df 91       	pop	r29
 1ee:	cf 91       	pop	r28
 1f0:	08 95       	ret

000001f2 <main>:
#include <util/delay.h>
#include <compat/deprecated.h>
#include "uart.h"

int main()
{
 1f2:	1f 93       	push	r17
 1f4:	cf 93       	push	r28
 1f6:	df 93       	push	r29
	char c = 0;
	int i = 0;
	uart_init();
 1f8:	0e 94 cc 00 	call	0x198	; 0x198 <uart_init>
 1fc:	c4 e1       	ldi	r28, 0x14	; 20
 1fe:	d0 e0       	ldi	r29, 0x00	; 0
 200:	0b c0       	rjmp	.+22     	; 0x218 <main+0x26>

   	for(i = 0; i < 20; i++) {
		for( c = 'A'; c <= 'Z'; c++){
		    uart_putchar(c);
 202:	81 2f       	mov	r24, r17
 204:	0e 94 dc 00 	call	0x1b8	; 0x1b8 <uart_putchar>
	char c = 0;
	int i = 0;
	uart_init();

   	for(i = 0; i < 20; i++) {
		for( c = 'A'; c <= 'Z'; c++){
 208:	1f 5f       	subi	r17, 0xFF	; 255
 20a:	1b 35       	cpi	r17, 0x5B	; 91
 20c:	d1 f7       	brne	.-12     	; 0x202 <main+0x10>
		    uart_putchar(c);
		}
		
        uart_putchar('\n');
 20e:	8a e0       	ldi	r24, 0x0A	; 10
 210:	0e 94 dc 00 	call	0x1b8	; 0x1b8 <uart_putchar>
 214:	21 97       	sbiw	r28, 0x01	; 1
{
	char c = 0;
	int i = 0;
	uart_init();

   	for(i = 0; i < 20; i++) {
 216:	11 f0       	breq	.+4      	; 0x21c <main+0x2a>
#include <util/delay.h>
#include <compat/deprecated.h>
#include "uart.h"

int main()
{
 218:	11 e4       	ldi	r17, 0x41	; 65
 21a:	f3 cf       	rjmp	.-26     	; 0x202 <main+0x10>
		}
		
        uart_putchar('\n');
		
	}
	uart_putstr("The end");
 21c:	80 e0       	ldi	r24, 0x00	; 0
 21e:	92 e0       	ldi	r25, 0x02	; 2
 220:	0e 94 ed 00 	call	0x1da	; 0x1da <uart_putstr>
   	
   	return 0;
}
 224:	80 e0       	ldi	r24, 0x00	; 0
 226:	90 e0       	ldi	r25, 0x00	; 0
 228:	df 91       	pop	r29
 22a:	cf 91       	pop	r28
 22c:	1f 91       	pop	r17
 22e:	08 95       	ret

00000230 <_exit>:
 230:	f8 94       	cli

00000232 <__stop_program>:
 232:	ff cf       	rjmp	.-2      	; 0x232 <__stop_program>
